target datalayout = "e-m:e-p270:32:32-p271:32:32-p272:64:64-i64:64-i128:128-f80:128-n8:16:32:64-S128"
target triple = "x86_64-pc-linux-gnu"

%struct.RsaKey = type { %struct.sp_int, %struct.sp_int, %struct.sp_int, %struct.sp_int, %struct.sp_int, %struct.sp_int, %struct.sp_int, %struct.sp_int, ptr, ptr, i32, i32, i32, ptr, i8 }
%struct.sp_int = type { i16, i16, [129 x i64] }

; Function Attrs: nounwind uwtable
define i32 @wc_RsaPSS_CheckPadding_ex(ptr noundef %0, i32 noundef %1, ptr noundef %2, i32 noundef %3, i32 noundef %4, i32 noundef %5, i32 noundef %6) #0 {
  %8 = alloca ptr, align 8
  %9 = alloca i32, align 4
  %10 = alloca ptr, align 8
  %11 = alloca i32, align 4
  %12 = alloca i32, align 4
  %13 = alloca i32, align 4
  %14 = alloca i32, align 4
  store ptr %0, ptr %8, align 8, !tbaa !27
  store i32 %1, ptr %9, align 4, !tbaa !7
  store ptr %2, ptr %10, align 8, !tbaa !27
  store i32 %3, ptr %11, align 4, !tbaa !7
  store i32 %4, ptr %12, align 4, !tbaa !7
  store i32 %5, ptr %13, align 4, !tbaa !7
  store i32 %6, ptr %14, align 4, !tbaa !7
  %15 = load ptr, ptr %8, align 8, !tbaa !27
  %16 = load i32, ptr %9, align 4, !tbaa !7
  %17 = load ptr, ptr %10, align 8, !tbaa !27
  %18 = load i32, ptr %11, align 4, !tbaa !7
  %19 = load i32, ptr %12, align 4, !tbaa !7
  %20 = load i32, ptr %13, align 4, !tbaa !7
  %21 = load i32, ptr %14, align 4, !tbaa !7
  %22 = call i32 @wc_RsaPSS_CheckPadding_ex2(ptr noundef %15, i32 noundef %16, ptr noundef %17, i32 noundef %18, i32 noundef %19, i32 noundef %20, i32 noundef %21, ptr noundef null)
  ret i32 %22
}

; Function Attrs: nounwind uwtable
define i32 @wc_RsaPSS_VerifyInline_ex(ptr noundef %0, i32 noundef %1, ptr noundef %2, i32 noundef %3, i32 noundef %4, i32 noundef %5, ptr noundef %6) #0 {
  %8 = alloca ptr, align 8
  %9 = alloca i32, align 4
  %10 = alloca ptr, align 8
  %11 = alloca i32, align 4
  %12 = alloca i32, align 4
  %13 = alloca i32, align 4
  %14 = alloca ptr, align 8
  %15 = alloca ptr, align 8
  %16 = alloca i32, align 4
  store ptr %0, ptr %8, align 8, !tbaa !27
  store i32 %1, ptr %9, align 4, !tbaa !7
  store ptr %2, ptr %10, align 8, !tbaa !32
  store i32 %3, ptr %11, align 4, !tbaa !7
  store i32 %4, ptr %12, align 4, !tbaa !7
  store i32 %5, ptr %13, align 4, !tbaa !7
  store ptr %6, ptr %14, align 8, !tbaa !11
  call void @llvm.lifetime.start.p0(i64 8, ptr %15) #8
  call void @llvm.lifetime.start.p0(i64 4, ptr %16) #8
  %17 = load ptr, ptr %14, align 8, !tbaa !11
  %18 = getelementptr inbounds nuw %struct.RsaKey, ptr %17, i32 0, i32 13
  %19 = load ptr, ptr %18, align 8, !tbaa !24
  store ptr %19, ptr %15, align 8, !tbaa !29
  br label %20

20:                                               ; preds = %7
  br label %21

21:                                               ; preds = %20
  br label %22

22:                                               ; preds = %21
  %23 = load ptr, ptr %8, align 8, !tbaa !27
  %24 = load i32, ptr %9, align 4, !tbaa !7
  %25 = load ptr, ptr %8, align 8, !tbaa !27
  %26 = load i32, ptr %9, align 4, !tbaa !7
  %27 = load ptr, ptr %10, align 8, !tbaa !32
  %28 = load ptr, ptr %14, align 8, !tbaa !11
  %29 = load i32, ptr %11, align 4, !tbaa !7
  %30 = load i32, ptr %12, align 4, !tbaa !7
  %31 = load i32, ptr %13, align 4, !tbaa !7
  %32 = load ptr, ptr %15, align 8, !tbaa !29
  %33 = call i32 @RsaPrivateDecryptEx(ptr noundef %23, i32 noundef %24, ptr noundef %25, i32 noundef %26, ptr noundef %27, ptr noundef %28, i32 noundef 1, i8 noundef zeroext 1, i32 noundef 2, i32 noundef %29, i32 noundef %30, ptr noundef null, i32 noundef 0, i32 noundef %31, ptr noundef %32)
  store i32 %33, ptr %16, align 4, !tbaa !7
  br label %34

34:                                               ; preds = %22
  br label %35

35:                                               ; preds = %34
  br label %36

36:                                               ; preds = %35
  %37 = load i32, ptr %16, align 4, !tbaa !7
  call void @llvm.lifetime.end.p0(i64 4, ptr %16) #8
  call void @llvm.lifetime.end.p0(i64 8, ptr %15) #8
  ret i32 %37
}

; Function Attrs: nounwind uwtable
define i32 @wc_RsaPSS_VerifyCheckInline(ptr noundef %0, i32 noundef %1, ptr noundef %2, ptr noundef %3, i32 noundef %4, i32 noundef %5, i32 noundef %6, ptr noundef %7) #0 {
  %9 = alloca i32, align 4
  %10 = alloca ptr, align 8
  %11 = alloca i32, align 4
  %12 = alloca ptr, align 8
  %13 = alloca ptr, align 8
  %14 = alloca i32, align 4
  %15 = alloca i32, align 4
  %16 = alloca i32, align 4
  %17 = alloca ptr, align 8
  %18 = alloca i32, align 4
  %19 = alloca i32, align 4
  %20 = alloca i32, align 4
  %21 = alloca i32, align 4
  %22 = alloca i32, align 4
  %23 = alloca i32, align 4
  store ptr %0, ptr %10, align 8, !tbaa !27
  store i32 %1, ptr %11, align 4, !tbaa !7
  store ptr %2, ptr %12, align 8, !tbaa !32
  store ptr %3, ptr %13, align 8, !tbaa !27
  store i32 %4, ptr %14, align 4, !tbaa !7
  store i32 %5, ptr %15, align 4, !tbaa !7
  store i32 %6, ptr %16, align 4, !tbaa !7
  store ptr %7, ptr %17, align 8, !tbaa !11
  call void @llvm.lifetime.start.p0(i64 4, ptr %18) #8
  store i32 0, ptr %18, align 4, !tbaa !7
  call void @llvm.lifetime.start.p0(i64 4, ptr %19) #8
  call void @llvm.lifetime.start.p0(i64 4, ptr %20) #8
  call void @llvm.lifetime.start.p0(i64 4, ptr %21) #8
  call void @llvm.lifetime.start.p0(i64 4, ptr %22) #8
  store i32 0, ptr %22, align 4, !tbaa !7
  %24 = load i32, ptr %15, align 4, !tbaa !7
  %25 = call i32 @wc_HashGetDigestSize(i32 noundef %24)
  store i32 %25, ptr %21, align 4, !tbaa !7
  %26 = load i32, ptr %21, align 4, !tbaa !7
  %27 = icmp slt i32 %26, 0
  br i1 %27, label %28, label %29

28:                                               ; preds = %8
  store i32 -173, ptr %9, align 4
  store i32 1, ptr %23, align 4
  br label %73

29:                                               ; preds = %8
  %30 = load i32, ptr %21, align 4, !tbaa !7
  %31 = load i32, ptr %14, align 4, !tbaa !7
  %32 = icmp ne i32 %30, %31
  br i1 %32, label %33, label %34

33:                                               ; preds = %29
  store i32 -173, ptr %9, align 4
  store i32 1, ptr %23, align 4
  br label %73

34:                                               ; preds = %29
  %35 = load i32, ptr %21, align 4, !tbaa !7
  store i32 %35, ptr %20, align 4, !tbaa !7
  %36 = load ptr, ptr %17, align 8, !tbaa !11
  %37 = getelementptr inbounds nuw %struct.RsaKey, ptr %36, i32 0, i32 0
  %38 = call i32 @sp_count_bits(ptr noundef %37)
  store i32 %38, ptr %22, align 4, !tbaa !7
  %39 = load i32, ptr %22, align 4, !tbaa !7
  %40 = icmp eq i32 %39, 1024
  br i1 %40, label %41, label %45

41:                                               ; preds = %34
  %42 = load i32, ptr %21, align 4, !tbaa !7
  %43 = icmp eq i32 %42, 64
  br i1 %43, label %44, label %45

44:                                               ; preds = %41
  store i32 62, ptr %20, align 4, !tbaa !7
  br label %45

45:                                               ; preds = %44, %41, %34
  %46 = load ptr, ptr %10, align 8, !tbaa !27
  %47 = load i32, ptr %11, align 4, !tbaa !7
  %48 = load ptr, ptr %12, align 8, !tbaa !32
  %49 = load i32, ptr %15, align 4, !tbaa !7
  %50 = load i32, ptr %16, align 4, !tbaa !7
  %51 = load i32, ptr %20, align 4, !tbaa !7
  %52 = load ptr, ptr %17, align 8, !tbaa !11
  %53 = call i32 @wc_RsaPSS_VerifyInline_ex(ptr noundef %46, i32 noundef %47, ptr noundef %48, i32 noundef %49, i32 noundef %50, i32 noundef %51, ptr noundef %52)
  store i32 %53, ptr %19, align 4, !tbaa !7
  %54 = load i32, ptr %19, align 4, !tbaa !7
  %55 = icmp sgt i32 %54, 0
  br i1 %55, label %56, label %66

56:                                               ; preds = %45
  %57 = load ptr, ptr %13, align 8, !tbaa !27
  %58 = load i32, ptr %14, align 4, !tbaa !7
  %59 = load ptr, ptr %12, align 8, !tbaa !32
  %60 = load ptr, ptr %59, align 8, !tbaa !27
  %61 = load i32, ptr %19, align 4, !tbaa !7
  %62 = load i32, ptr %15, align 4, !tbaa !7
  %63 = load i32, ptr %20, align 4, !tbaa !7
  %64 = load i32, ptr %22, align 4, !tbaa !7
  %65 = call i32 @wc_RsaPSS_CheckPadding_ex(ptr noundef %57, i32 noundef %58, ptr noundef %60, i32 noundef %61, i32 noundef %62, i32 noundef %63, i32 noundef %64)
  store i32 %65, ptr %18, align 4, !tbaa !7
  br label %66

66:                                               ; preds = %56, %45
  %67 = load i32, ptr %18, align 4, !tbaa !7
  %68 = icmp eq i32 %67, 0
  br i1 %68, label %69, label %71

69:                                               ; preds = %66
  %70 = load i32, ptr %19, align 4, !tbaa !7
  store i32 %70, ptr %18, align 4, !tbaa !7
  br label %71

71:                                               ; preds = %69, %66
  %72 = load i32, ptr %18, align 4, !tbaa !7
  store i32 %72, ptr %9, align 4
  store i32 1, ptr %23, align 4
  br label %73

73:                                               ; preds = %71, %33, %28
  call void @llvm.lifetime.end.p0(i64 4, ptr %22) #8
  call void @llvm.lifetime.end.p0(i64 4, ptr %21) #8
  call void @llvm.lifetime.end.p0(i64 4, ptr %20) #8
  call void @llvm.lifetime.end.p0(i64 4, ptr %19) #8
  call void @llvm.lifetime.end.p0(i64 4, ptr %18) #8
  %74 = load i32, ptr %9, align 4
  ret i32 %74
}