; Function Attrs: nounwind uwtable
define i32 @wc_RsaPSS_VerifyCheckInline(ptr noundef %0, i32 noundef %1, ptr noundef captures(address_is_null) %2, ptr noundef captures(address_is_null) %3, i32 noundef %4, i32 noundef %5, i32 noundef %6, ptr noundef %7) local_unnamed_addr #0 {
  %9 = tail call i32 @wc_HashGetDigestSize(i32 noundef %5) #12
  %10 = icmp sgt i32 %9, -1
  %.not = icmp eq i32 %9, %4
  %or.cond33 = and i1 %10, %.not
  br i1 %or.cond33, label %11, label %23

11:                                               ; preds = %8
  %12 = tail call i32 @sp_count_bits(ptr noundef %7) #12
  %13 = icmp eq i32 %12, 1024
  %14 = icmp eq i32 %4, 64
  %or.cond = and i1 %14, %13
  %spec.select = select i1 %or.cond, i32 62, i32 %4
  %15 = getelementptr inbounds nuw i8, ptr %7, i64 8352
  %16 = load ptr, ptr %15, align 8, !tbaa !14
  %17 = tail call fastcc i32 @RsaPrivateDecryptEx(ptr noundef %0, i32 noundef %1, ptr noundef %0, i32 noundef %1, ptr noundef %2, ptr noundef %7, i32 noundef 1, i8 noundef zeroext 1, i32 noundef 2, i32 noundef %5, i32 noundef %6, ptr noundef null, i32 noundef 0, i32 noundef %spec.select, ptr noundef %16)
  %18 = icmp sgt i32 %17, 0
  br i1 %18, label %19, label %.thread

19:                                               ; preds = %11
  %20 = load ptr, ptr %2, align 8, !tbaa !30
  %21 = tail call i32 @wc_RsaPSS_CheckPadding_ex2(ptr noundef %3, i32 noundef %4, ptr noundef %20, i32 noundef %17, i32 noundef %5, i32 noundef %spec.select, i32 noundef %12, ptr poison)
  %.fr = freeze i32 %21
  %22 = icmp eq i32 %.fr, 0
  br i1 %22, label %.thread, label %23

.thread:                                          ; preds = %11, %19
  br label %23

23:                                               ; preds = %.thread, %19, %8
  %.0 = phi i32 [ -173, %8 ], [ %17, %.thread ], [ %.fr, %19 ]
  ret i32 %.0
}